target datalayout = "e-m:e-p270:32:32-p271:32:32-p272:64:64-i64:64-i128:128-f80:128-n8:16:32:64-S128"
target triple = "x86_64-unknown-linux-gnu"

%"class.QuantLib::Date" = type { i64 }
%"class.QuantLib::NotionalPath" = type { %"class.std::vector" }
%"class.std::vector" = type { %"struct.std::_Vector_base" }
%"struct.std::_Vector_base" = type { %"struct.std::_Vector_base<std::pair<QuantLib::Date, double>, std::allocator<std::pair<QuantLib::Date, double>>>::_Vector_impl" }
%"struct.std::_Vector_base<std::pair<QuantLib::Date, double>, std::allocator<std::pair<QuantLib::Date, double>>>::_Vector_impl" = type { %"struct.std::_Vector_base<std::pair<QuantLib::Date, double>, std::allocator<std::pair<QuantLib::Date, double>>>::_Vector_impl_data" }
%"struct.std::_Vector_base<std::pair<QuantLib::Date, double>, std::allocator<std::pair<QuantLib::Date, double>>>::_Vector_impl_data" = type { ptr, ptr, ptr }
%"struct.std::pair" = type { %"class.QuantLib::Date", double }

; Function Attrs: inlinehint mustprogress nounwind uwtable
define linkonce_odr noundef i64 @_ZNK8QuantLib4Date12serialNumberEv(ptr noundef nonnull align 8 dereferenceable(8) %this) #5 comdat align 2 {
entry:
  %this.addr = alloca ptr, align 8
  store ptr %this, ptr %this.addr, align 8, !tbaa !3
  %this1 = load ptr, ptr %this.addr, align 8
  %serialNumber_ = getelementptr inbounds nuw %"class.QuantLib::Date", ptr %this1, i32 0, i32 0
  %0 = load i64, ptr %serialNumber_, align 8, !tbaa !31
  ret i64 %0
}

; Function Attrs: inlinehint mustprogress uwtable
define linkonce_odr noundef zeroext i1 @_ZN8QuantLibleERKNS_4DateES2_(ptr noundef nonnull align 8 dereferenceable(8) %d1, ptr noundef nonnull align 8 dereferenceable(8) %d2) #4 comdat {
entry:
  %d1.addr = alloca ptr, align 8
  %d2.addr = alloca ptr, align 8
  store ptr %d1, ptr %d1.addr, align 8, !tbaa !3
  store ptr %d2, ptr %d2.addr, align 8, !tbaa !3
  %0 = load ptr, ptr %d1.addr, align 8, !tbaa !3
  %call = call noundef i64 @_ZNK8QuantLib4Date12serialNumberEv(ptr noundef nonnull align 8 dereferenceable(8) %0)
  %1 = load ptr, ptr %d2.addr, align 8, !tbaa !3
  %call1 = call noundef i64 @_ZNK8QuantLib4Date12serialNumberEv(ptr noundef nonnull align 8 dereferenceable(8) %1)
  %cmp = icmp sle i64 %call, %call1
  ret i1 %cmp
}

; Function Attrs: mustprogress nounwind uwtable
define linkonce_odr noundef nonnull align 8 dereferenceable(16) ptr @_ZNKSt6vectorISt4pairIN8QuantLib4DateEdESaIS3_EEixEm(ptr noundef nonnull align 8 dereferenceable(24) %this, i64 noundef %__n) #1 comdat align 2 {
entry:
  %this.addr = alloca ptr, align 8
  %__n.addr = alloca i64, align 8
  store ptr %this, ptr %this.addr, align 8, !tbaa !3
  store i64 %__n, ptr %__n.addr, align 8, !tbaa !13
  %this1 = load ptr, ptr %this.addr, align 8
  %_M_impl = getelementptr inbounds nuw %"struct.std::_Vector_base", ptr %this1, i32 0, i32 0
  %_M_start = getelementptr inbounds nuw %"struct.std::_Vector_base<std::pair<QuantLib::Date, double>, std::allocator<std::pair<QuantLib::Date, double>>>::_Vector_impl_data", ptr %_M_impl, i32 0, i32 0
  %0 = load ptr, ptr %_M_start, align 8, !tbaa !12
  %1 = load i64, ptr %__n.addr, align 8, !tbaa !13
  %add.ptr = getelementptr inbounds nuw %"struct.std::pair", ptr %0, i64 %1
  ret ptr %add.ptr
}

; Function Attrs: mustprogress nounwind uwtable
define linkonce_odr noundef i64 @_ZNKSt6vectorISt4pairIN8QuantLib4DateEdESaIS3_EE4sizeEv(ptr noundef nonnull align 8 dereferenceable(24) %this) #1 comdat align 2 {
entry:
  %this.addr = alloca ptr, align 8
  store ptr %this, ptr %this.addr, align 8, !tbaa !3
  %this1 = load ptr, ptr %this.addr, align 8
  %_M_impl = getelementptr inbounds nuw %"struct.std::_Vector_base", ptr %this1, i32 0, i32 0
  %_M_finish = getelementptr inbounds nuw %"struct.std::_Vector_base<std::pair<QuantLib::Date, double>, std::allocator<std::pair<QuantLib::Date, double>>>::_Vector_impl_data", ptr %_M_impl, i32 0, i32 1
  %0 = load ptr, ptr %_M_finish, align 8, !tbaa !9
  %_M_impl2 = getelementptr inbounds nuw %"struct.std::_Vector_base", ptr %this1, i32 0, i32 0
  %_M_start = getelementptr inbounds nuw %"struct.std::_Vector_base<std::pair<QuantLib::Date, double>, std::allocator<std::pair<QuantLib::Date, double>>>::_Vector_impl_data", ptr %_M_impl2, i32 0, i32 0
  %1 = load ptr, ptr %_M_start, align 8, !tbaa !12
  %sub.ptr.lhs.cast = ptrtoint ptr %0 to i64
  %sub.ptr.rhs.cast = ptrtoint ptr %1 to i64
  %sub.ptr.sub = sub i64 %sub.ptr.lhs.cast, %sub.ptr.rhs.cast
  %sub.ptr.div = sdiv exact i64 %sub.ptr.sub, 16
  ret i64 %sub.ptr.div
}

; Function Attrs: mustprogress uwtable
define noundef double @_ZNK8QuantLib12NotionalPath12notionalRateERKNS_4DateE(ptr noundef nonnull align 8 dereferenceable(24) %this, ptr noundef nonnull align 8 dereferenceable(8) %date) #0 align 2 {
entry:
  %this.addr = alloca ptr, align 8
  %date.addr = alloca ptr, align 8
  %i = alloca i64, align 8
  store ptr %this, ptr %this.addr, align 8, !tbaa !3
  store ptr %date, ptr %date.addr, align 8, !tbaa !3
  %this1 = load ptr, ptr %this.addr, align 8
  call void @llvm.lifetime.start.p0(i64 8, ptr %i) #13
  store i64 0, ptr %i, align 8, !tbaa !13
  br label %for.cond

for.cond:                                         ; preds = %for.inc, %entry
  %0 = load i64, ptr %i, align 8, !tbaa !13
  %notionalRate_ = getelementptr inbounds nuw %"class.QuantLib::NotionalPath", ptr %this1, i32 0, i32 0
  %call = call noundef i64 @_ZNKSt6vectorISt4pairIN8QuantLib4DateEdESaIS3_EE4sizeEv(ptr noundef nonnull align 8 dereferenceable(24) %notionalRate_) #13
  %cmp = icmp ult i64 %0, %call
  br i1 %cmp, label %land.rhs, label %land.end

land.rhs:                                         ; preds = %for.cond
  %notionalRate_2 = getelementptr inbounds nuw %"class.QuantLib::NotionalPath", ptr %this1, i32 0, i32 0
  %1 = load i64, ptr %i, align 8, !tbaa !13
  %call3 = call noundef nonnull align 8 dereferenceable(16) ptr @_ZNKSt6vectorISt4pairIN8QuantLib4DateEdESaIS3_EEixEm(ptr noundef nonnull align 8 dereferenceable(24) %notionalRate_2, i64 noundef %1) #13
  %first = getelementptr inbounds nuw %"struct.std::pair", ptr %call3, i32 0, i32 0
  %2 = load ptr, ptr %date.addr, align 8, !tbaa !3
  %call4 = call noundef zeroext i1 @_ZN8QuantLibleERKNS_4DateES2_(ptr noundef nonnull align 8 dereferenceable(8) %first, ptr noundef nonnull align 8 dereferenceable(8) %2)
  br label %land.end

land.end:                                         ; preds = %land.rhs, %for.cond
  %3 = phi i1 [ false, %for.cond ], [ %call4, %land.rhs ]
  br i1 %3, label %for.body, label %for.end

for.body:                                         ; preds = %land.end
  br label %for.inc

for.inc:                                          ; preds = %for.body
  %4 = load i64, ptr %i, align 8, !tbaa !13
  %inc = add i64 %4, 1
  store i64 %inc, ptr %i, align 8, !tbaa !13
  br label %for.cond, !llvm.loop !15

for.end:                                          ; preds = %land.end
  %notionalRate_5 = getelementptr inbounds nuw %"class.QuantLib::NotionalPath", ptr %this1, i32 0, i32 0
  %5 = load i64, ptr %i, align 8, !tbaa !13
  %sub = sub i64 %5, 1
  %call6 = call noundef nonnull align 8 dereferenceable(16) ptr @_ZNKSt6vectorISt4pairIN8QuantLib4DateEdESaIS3_EEixEm(ptr noundef nonnull align 8 dereferenceable(24) %notionalRate_5, i64 noundef %sub) #13
  %second = getelementptr inbounds nuw %"struct.std::pair", ptr %call6, i32 0, i32 1
  %6 = load double, ptr %second, align 8, !tbaa !17
  call void @llvm.lifetime.end.p0(i64 8, ptr %i) #13
  ret double %6
}