; Function Attrs: mustprogress nofree norecurse nosync nounwind willreturn memory(read, inaccessiblemem: none) uwtable
define noundef double @_ZNK8QuantLib12NotionalPath12notionalRateERKNS_4DateE(ptr nocapture noundef nonnull readonly align 8 dereferenceable(24) %this, ptr nocapture noundef nonnull readonly align 8 dereferenceable(8) %date) local_unnamed_addr #3 align 2 {
entry:
  %_M_finish.i = getelementptr inbounds nuw i8, ptr %this, i64 8
  %0 = load ptr, ptr %_M_finish.i, align 8, !tbaa !15
  %1 = load ptr, ptr %this, align 8, !tbaa !22
  %cmp5.not = icmp eq ptr %0, %1
  br i1 %cmp5.not, label %for.end, label %land.rhs.lr.ph

land.rhs.lr.ph:                                   ; preds = %entry
  %sub.ptr.lhs.cast.i = ptrtoint ptr %0 to i64
  %sub.ptr.rhs.cast.i = ptrtoint ptr %1 to i64
  %sub.ptr.sub.i = sub i64 %sub.ptr.lhs.cast.i, %sub.ptr.rhs.cast.i
  %sub.ptr.div.i = ashr exact i64 %sub.ptr.sub.i, 4
  %2 = load i64, ptr %date, align 8, !tbaa !23
  %umax = tail call i64 @llvm.umax.i64(i64 %sub.ptr.div.i, i64 1)
  br label %land.rhs

land.rhs:                                         ; preds = %land.rhs.lr.ph, %for.inc
  %i.06 = phi i64 [ 0, %land.rhs.lr.ph ], [ %inc, %for.inc ]
  %add.ptr.i = getelementptr inbounds nuw %"struct.std::pair", ptr %1, i64 %i.06
  %3 = load i64, ptr %add.ptr.i, align 8, !tbaa !23
  %cmp.i.not = icmp sgt i64 %3, %2
  br i1 %cmp.i.not, label %for.end, label %for.inc

for.inc:                                          ; preds = %land.rhs
  %inc = add nuw i64 %i.06, 1
  %exitcond.not = icmp eq i64 %inc, %umax
  br i1 %exitcond.not, label %for.end, label %land.rhs, !llvm.loop !24

for.end:                                          ; preds = %land.rhs, %for.inc, %entry
  %i.0.lcssa = phi i64 [ 0, %entry ], [ %umax, %for.inc ], [ %i.06, %land.rhs ]
  %4 = getelementptr %"struct.std::pair", ptr %1, i64 %i.0.lcssa
  %second = getelementptr i8, ptr %4, i64 -8
  %5 = load double, ptr %second, align 8, !tbaa !11
  ret double %5
}